; Function Attrs: mustprogress nofree norecurse nosync nounwind willreturn memory(readwrite, inaccessiblemem: none) uwtable
define void @_ZN5ImGui18SetWindowFontScaleEf(float noundef %0) local_unnamed_addr #34 {
  %2 = load ptr, ptr @GImGui, align 8, !tbaa !216
  %3 = getelementptr inbounds nuw i8, ptr %2, i64 5016
  %4 = load ptr, ptr %3, align 8, !tbaa !314
  %5 = getelementptr inbounds nuw i8, ptr %4, i64 204
  store i8 1, ptr %5, align 4, !tbaa !785
  %6 = getelementptr inbounds nuw i8, ptr %4, i64 688
  store float %0, ptr %6, align 8, !tbaa !733
  %7 = load ptr, ptr %4, align 8, !tbaa !716
  %8 = getelementptr inbounds nuw i8, ptr %7, i64 4276
  %9 = load float, ptr %8, align 4, !tbaa !893
  %10 = fmul float %0, %9
  %11 = getelementptr inbounds nuw i8, ptr %4, i64 692
  %12 = load float, ptr %11, align 4, !tbaa !732
  %13 = fmul float %10, %12
  %14 = getelementptr inbounds nuw i8, ptr %2, i64 4312
  store float %13, ptr %14, align 8, !tbaa !896
  %15 = getelementptr inbounds nuw i8, ptr %2, i64 4272
  store float %13, ptr %15, align 8, !tbaa !454
  %16 = getelementptr inbounds nuw i8, ptr %2, i64 4264
  %17 = load ptr, ptr %16, align 8, !tbaa !453
  %18 = getelementptr inbounds nuw i8, ptr %17, i64 20
  %19 = load float, ptr %18, align 4, !tbaa !891
  %20 = fdiv float %13, %19
  %21 = getelementptr inbounds nuw i8, ptr %2, i64 4316
  store float %20, ptr %21, align 4, !tbaa !897
  %22 = getelementptr inbounds nuw i8, ptr %2, i64 4280
  store float %20, ptr %22, align 8, !tbaa !894
  ret void
}